ASxxxx Linker V03.00 + NoICE + sdld,  page 1.
Hexadecimal  [32-Bits]

Area                                    Addr        Size        Decimal Bytes (Attributes)
--------------------------------        ----        ----        ------- ----- ------------
.  .ABS.                            00000000    00000000 =           0. bytes (ABS,CON)

      Value  Global                              Global Defined In Module
      -----  --------------------------------   ------------------------
     00000000  .__.ABS.                           cpct_strings
     00000000  l__CABS                         
     00000000  l__DABS                         
     00000000  l__GSFINAL                      
     00000000  l__HOME                         
     00000000  s__CABS                         
     00000000  s__DABS                         
     00000008  l__GSINIT                       
     0000000F  l__INITIALIZED                  
     0000000F  l__INITIALIZER                  
     000000D2  l__DATA                         
     00004FC8  l__CODE                         
     00005000  s__CODE                         
     00009FC8  s__DATA                         
     0000A09A  s__INITIALIZED                  
     0000A0A9  s__GSINIT                       
     0000A0A9  s__HOME                         
     0000A0B1  s__GSFINAL                      
     0000A0B1  s__INITIALIZER                  

ASxxxx Linker V03.00 + NoICE + sdld,  page 2.
Hexadecimal  [32-Bits]

Area                                    Addr        Size        Decimal Bytes (Attributes)
--------------------------------        ----        ----        ------- ----- ------------
_CODE                               00005000    00004FC8 =       20424. bytes (REL,CON)

      Value  Global                              Global Defined In Module
      -----  --------------------------------   ------------------------
     00005000  _renewTileBag                      game
     00005061  _values                            game
     0000507F  _scores                            game
     000050BB  _tiles                             game
     000050D9  _delay                             game
     000050FC  _countZeroes                       game
     00005127  _initAdjacents                     game
     0000513E  _getAdjacents                      game
     00005209  _anyOfThisInAdjacents              game
     00005234  _anyMovesLeft                      game
     000052BB  _addRandomCellTurn                 game
     00005387  _addRandomCell                     game
     000053D9  _initCells                         game
     000053F9  _initialization                    game
     0000557C  _initGame                          game
     0000559D  _rotateCellsLeft                   game
     00005658  _rotateCellsRight                  game
     00005719  _rotateCellsUp                     game
     000057C6  _rotateCellsDown                   game
     00005888  _printCells                        game
     0000593D  _drawScore                         game
     000059FB  _getName                           game
     00005BED  _setHighScore                      game
     00005CF3  _drawScoreBoard                    game
     00005E41  _game                              game
     00005FC2  _checkKeyboardMenu                 game
     000061C4  _threes                            game
     000061F3  _main                              main
     000061FC  _g_tile_border_0                   border
     00006204  _g_tile_border_1                   border
     0000620C  _g_tile_border_2                   border
     00006214  _g_tile_border_3                   border
     0000621C  _g_tile_border_4                   border
     00006224  _g_tile_border_5                   border
     0000622C  _g_tile_border_6                   border
     00006234  _g_tile_border_7                   border
     0000623C  _G_font                            font
     000063EC  _g_font_big                        fonts_big
     000068D2  _G_numbers_big                     numbers_big
     00006A1C  _G_numbers                         numbers
     00006ABC  _g_tile_marker_0                   sprites
     00006ACE  _g_tile_marker_3                   sprites
     00006AE0  _G_redstar                         sprites
     00006AEE  _G_bluestar                        sprites
     00006AFC  _G_metal                           sprites
     00006B56  _G_frame_1                         tilemap
     00006B5E  _G_frame_2                         tilemap
     00006B66  _G_frame_3                         tilemap
     00006B6E  _G_frame_4                         tilemap
     00006B76  _G_frame_5                         tilemap
ASxxxx Linker V03.00 + NoICE + sdld,  page 3.
Hexadecimal  [32-Bits]

Area                                    Addr        Size        Decimal Bytes (Attributes)
--------------------------------        ----        ----        ------- ----- ------------
_CODE                               00005000    00004FC8 =       20424. bytes (REL,CON)

      Value  Global                              Global Defined In Module
      -----  --------------------------------   ------------------------
     00006B7E  _G_frame_6                         tilemap
     00006B86  _G_frame_7                         tilemap
     00006B8E  _tile_tiles_00                     tiles
     00006D1E  _tile_tiles_01                     tiles
     00006EAE  _tile_tiles_02                     tiles
     0000703E  _tile_tiles_03                     tiles
     000071CE  _tile_tiles_04                     tiles
     0000735E  _tile_tiles_05                     tiles
     000074EE  _tile_tiles_06                     tiles
     0000767E  _tile_tiles_07                     tiles
     0000780E  _tile_tiles_08                     tiles
     0000799E  _tile_tiles_09                     tiles
     00007B2E  _tile_tiles_10                     tiles
     00007CBE  _tile_tiles_11                     tiles
     00007E4E  _tile_tiles_12                     tiles
     00007FDE  _tile_tiles_13                     tiles
     0000816E  _tile_tiles_14                     tiles
     000082FE  _tile_tiles_15                     tiles
     0000848E  _strLength                         text
     000084A4  _strCopy                           text
     000084D0  _drawNumber                        text
     0000856D  _drawText                          text
     00008650  _moveCharacter                     text
     000087BB  _moveFallingText                   text
     00008857  _drawFallingText                   text
     0000895C  _itoa                              itoa
     00008A89  _wait4UserKeypress                 keyboard
     00008AA7  _esperaUnaTecla                    keyboard
     00008AF0  _waitKeyUp                         keyboard
     00008AFF  _wait4Key                          keyboard
     00008B1C  _redefineKey                       keyboard
     00008B70  _drawMenu                          draw
     00008C91  _clearGameScreen                   draw
     00008CAD  _drawFrame                         draw
     00008E6F  _drawStar                          draw
     00008EA6  _drawStars                         draw
     00008F7F  _setUpVideo                        video
     00008FAE  _G_graphics_palette                video
     00008FBE  _clearScreen                       video
     00008FD3  _clearWindow                       video
     0000900A  _cpct_setPalette                   cpct_video
     00009021  _cpct_isKeyPressed                 cpct_keyboard
     00009021  cpct_isKeyPressed_asm              cpct_keyboard
     0000902D  _cpct_scanKeyboard_f               cpct_keyboard
     0000902D  cpct_scanKeyboard_f_asm            cpct_keyboard
     00009097  _cpct_setPALColour                 cpct_video
     000090A3  _cpct_drawSprite                   cpct_sprites
     00009148  __moduchar                         
     00009154  __moduint                          
     0000915F  __divuint                          
     00009167  __divuchar                         
ASxxxx Linker V03.00 + NoICE + sdld,  page 4.
Hexadecimal  [32-Bits]

Area                                    Addr        Size        Decimal Bytes (Attributes)
--------------------------------        ----        ----        ------- ----- ------------
_CODE                               00005000    00004FC8 =       20424. bytes (REL,CON)

      Value  Global                              Global Defined In Module
      -----  --------------------------------   ------------------------
     0000916E  __divu8                            
     00009171  __divu16                           
     000091A0  _cpct_fw2hw                        cpct_video
     000091B3  _cpct_keyboardStatusBuffer         cpct_keyboard
     000091BD  _cpct_setSeed_mxor                 cpct_random
     000091BD  cpct_setSeed_mxor_asm              cpct_random
     000091C5  _cpct_restoreState_mxor_u8         cpct_random
     000091C5  cpct_restoreState_mxor_u8_asm      cpct_random
     000091CB  _cpct_getRandom_mxor_u8            cpct_random
     000091CB  cpct_getRandom_mxor_u8             cpct_random
     000091CC  cpct_randomIdx_mxor_u8             cpct_random
     00009210  _vsprintf                          sprintf
     00009245  _sprintf                           sprintf
     0000927A  _cpct_nextRandom_mxor_u32          cpct_random
     0000927A  cpct_nextRandom_mxor_u32_asm       cpct_random
     0000929D  cpct_firmware2hw_colour            
     000092B8  _cpct_isAnyKeyPressed              cpct_keyboard
     000092B8  cpct_isAnyKeyPressed_asm           cpct_keyboard
     000092C5  _cpct_setVideoMode                 cpct_video
     000092D3  _cpct_waitVSYNC                    cpct_video
     000092D3  cpct_waitVSYNC_asm                 cpct_video
     000092DB  _cpct_isAnyKeyPressed_f            cpct_keyboard
     000092DB  cpct_isAnyKeyPressed_f_asm         cpct_keyboard
     000092F6  _cpct_px2byteM0                    cpct_sprites
     00009312  _cpct_memset                       cpct_memutils
     00009320  _strlen                            
     0000932F  _cpct_disableFirmware              cpct_firmware
     0000932F  _cpct_removeInterruptHandler       cpct_firmware
     0000932F  cpct_disableFirmware_asm           cpct_firmware
     0000932F  cpct_removeInterruptHandler_asm    cpct_firmware
     0000933F  _cpct_drawSolidBox                 cpct_sprites
     000093F7  _cpct_mode_rom_status              cpct_firmware
     000093F8  _cpct_scanKeyboard                 cpct_keyboard
     000093F8  cpct_scanKeyboard_asm              cpct_keyboard
     00009429  _cpct_getScreenPtr                 cpct_video
     00009449  __divsint                          
     00009452  __divschar                         
     00009459  __div8                             
     0000945D  __div_signexte                     
     00009461  __div16                            
     00009487  __get_remainder                    
     00009594  __print_format                     printf_large
     00009FB3  _cpct_mxor32_seed                  cpct_random
     00009FB7  ___sdcc_call_hl                    
     00009FB8  dc_mode0_ct                        cpct_strings

ASxxxx Linker V03.00 + NoICE + sdld,  page 5.
Hexadecimal  [32-Bits]

Area                                    Addr        Size        Decimal Bytes (Attributes)
--------------------------------        ----        ----        ------- ----- ------------
_DATA                               00009FC8    000000D2 =         210. bytes (REL,CON)

      Value  Global                              Global Defined In Module
      -----  --------------------------------   ------------------------
     00009FC8  _keys                              game
     00009FD6  _cells                             game
     00009FE6  _adjacents                         game
     00009FEB  _score                             game
     00009FEF  _scoreHallOfFame                   game
     0000A00F  _nameHallOfFame                    game
     0000A087  _nextTile                          game
     0000A088  _selectedOption                    game
     0000A089  _aux_txt                           game
     0000A08B  _tileBag                           game
     0000A097  _currentTile                       game
     0000A098  _maxTiles                          game
ASxxxx Linker V03.00 + NoICE + sdld,  page 6.
Hexadecimal  [32-Bits]

Area                                    Addr        Size        Decimal Bytes (Attributes)
--------------------------------        ----        ----        ------- ----- ------------
_INITIALIZED                        0000A09A    0000000F =          15. bytes (REL,CON)

      Value  Global                              Global Defined In Module
      -----  --------------------------------   ------------------------
     0000A09A  _newNameHighScore                  game

ASxxxx Linker V03.00 + NoICE + sdld,  page 7.
Hexadecimal  [32-Bits]

Area                                    Addr        Size        Decimal Bytes (Attributes)
--------------------------------        ----        ----        ------- ----- ------------
_GSINIT                             0000A0A9    00000008 =           8. bytes (REL,CON)

      Value  Global                              Global Defined In Module
      -----  --------------------------------   ------------------------
ASxxxx Linker V03.00 + NoICE + sdld,  page 8.
Hexadecimal  [32-Bits]

Area                                    Addr        Size        Decimal Bytes (Attributes)
--------------------------------        ----        ----        ------- ----- ------------
_INITIALIZER                        0000A0B1    0000000F =          15. bytes (REL,CON)

      Value  Global                              Global Defined In Module
      -----  --------------------------------   ------------------------
ASxxxx Linker V03.00 + NoICE + sdld,  page 9.

Files Linked                              [ module(s) ]

obj/game.rel                              [ game ]
obj/main.rel                              [ main ]
obj/sprites/border.rel                    [ border ]
obj/sprites/font.rel                      [ font ]
obj/sprites/fonts-big.rel                 [ fonts_big ]
obj/sprites/numbers-big.rel               [ numbers_big ]
obj/sprites/numbers.rel                   [ numbers ]
obj/sprites/sprites.rel                   [ sprites ]
obj/sprites/tilemap.rel                   [ tilemap ]
obj/sprites/tiles.rel                     [ tiles ]
obj/text/text.rel                         [ text ]
obj/utils/itoa.rel                        [ itoa ]
obj/utils/keyboard.rel                    [ keyboard ]
obj/video/draw.rel                        [ draw ]
obj/video/video.rel                       [ video ]


Libraries Linked                          [ object file ]

/Users/david/Documents/retro/proyectos/cpctelera/cpctelera/cpctelera.lib
                                          [ cpct_setPalette_cbindings.rel ]
/Users/david/Documents/retro/proyectos/cpctelera/cpctelera/cpctelera.lib
                                          [ cpct_isKeyPressed.rel ]
/Users/david/Documents/retro/proyectos/cpctelera/cpctelera/cpctelera.lib
                                          [ cpct_scanKeyboard_f.rel ]
/Users/david/Documents/retro/proyectos/cpctelera/cpctelera/cpctelera.lib
                                          [ cpct_setPALColour_cbindings.rel ]
/Users/david/Documents/retro/proyectos/cpctelera/cpctelera/cpctelera.lib
                                          [ cpct_drawSprite_cbindings.rel ]
/Users/david/Documents/retro/proyectos/cpctelera/cpctelera/tools/sdcc-3.5.5/bin/../share/sdcc/lib/z80/z80.lib
                                          [ modunsigned.rel ]
/Users/david/Documents/retro/proyectos/cpctelera/cpctelera/tools/sdcc-3.5.5/bin/../share/sdcc/lib/z80/z80.lib
                                          [ divunsigned.rel ]
/Users/david/Documents/retro/proyectos/cpctelera/cpctelera/cpctelera.lib
                                          [ cpct_fw2hw_cbindings.rel ]
/Users/david/Documents/retro/proyectos/cpctelera/cpctelera/cpctelera.lib
                                          [ keyboard.rel ]
/Users/david/Documents/retro/proyectos/cpctelera/cpctelera/cpctelera.lib
                                          [ cpct_setSeed_mxor.rel ]
/Users/david/Documents/retro/proyectos/cpctelera/cpctelera/cpctelera.lib
                                          [ cpct_restoreState_mxor_u8.rel ]
/Users/david/Documents/retro/proyectos/cpctelera/cpctelera/cpctelera.lib
                                          [ cpct_getRandom_mxor_u8.rel ]
/Users/david/Documents/retro/proyectos/cpctelera/cpctelera/tools/sdcc-3.5.5/bin/../share/sdcc/lib/z80/z80.lib
                                          [ sprintf.rel ]
/Users/david/Documents/retro/proyectos/cpctelera/cpctelera/cpctelera.lib
                                          [ cpct_nextRandom_mxor_u32.rel ]
/Users/david/Documents/retro/proyectos/cpctelera/cpctelera/cpctelera.lib
                                          [ cpct_firmware2hw_colour_table.re ]
/Users/david/Documents/retro/proyectos/cpctelera/cpctelera/cpctelera.lib
                                          [ cpct_isAnyKeyPressed.rel ]
/Users/david/Documents/retro/proyectos/cpctelera/cpctelera/cpctelera.lib
                                          [ cpct_setVideoMode_cbindings.rel ]
/Users/david/Documents/retro/proyectos/cpctelera/cpctelera/cpctelera.lib
                                          [ cpct_waitVSYNC.rel ]
/Users/david/Documents/retro/proyectos/cpctelera/cpctelera/cpctelera.lib
                                          [ cpct_isAnyKeyPressed_f.rel ]
/Users/david/Documents/retro/proyectos/cpctelera/cpctelera/cpctelera.lib
                                          [ cpct_px2byteM0_cbindings.rel ]
/Users/david/Documents/retro/proyectos/cpctelera/cpctelera/cpctelera.lib
                                          [ cpct_memset_cbinding.rel ]
/Users/david/Documents/retro/proyectos/cpctelera/cpctelera/tools/sdcc-3.5.5/bin/../share/sdcc/lib/z80/z80.lib
                                          [ strlen.rel ]
/Users/david/Documents/retro/proyectos/cpctelera/cpctelera/cpctelera.lib
                                          [ cpct_removeInterruptHandler.rel ]
/Users/david/Documents/retro/proyectos/cpctelera/cpctelera/cpctelera.lib
                                          [ cpct_drawSolidBox_cbindings.rel ]
/Users/david/Documents/retro/proyectos/cpctelera/cpctelera/cpctelera.lib
                                          [ cpc_mode_rom_status.rel ]
/Users/david/Documents/retro/proyectos/cpctelera/cpctelera/cpctelera.lib
                                          [ cpct_scanKeyboard.rel ]
/Users/david/Documents/retro/proyectos/cpctelera/cpctelera/cpctelera.lib
                                          [ cpct_getScreenPtr_cbindings.rel ]
/Users/david/Documents/retro/proyectos/cpctelera/cpctelera/tools/sdcc-3.5.5/bin/../share/sdcc/lib/z80/z80.lib
                                          [ divsigned.rel ]
/Users/david/Documents/retro/proyectos/cpctelera/cpctelera/tools/sdcc-3.5.5/bin/../share/sdcc/lib/z80/z80.lib
                                          [ printf_large.rel ]
/Users/david/Documents/retro/proyectos/cpctelera/cpctelera/cpctelera.lib
                                          [ cpct_mxor32_seed.rel ]
/Users/david/Documents/retro/proyectos/cpctelera/cpctelera/tools/sdcc-3.5.5/bin/../share/sdcc/lib/z80/z80.lib
                                          [ __sdcc_call_hl.rel ]
/Users/david/Documents/retro/proyectos/cpctelera/cpctelera/cpctelera.lib
                                          [ cpct_dc_mode0_ct.rel ]

ASxxxx Linker V03.00 + NoICE + sdld,  page 10.

User Base Address Definitions

_CODE = 0x5000
_DATA = 0x0000

